target datalayout = "e-m:e-p270:32:32-p271:32:32-p272:64:64-i64:64-i128:128-f80:128-n8:16:32:64-S128"
target triple = "x86_64-pc-linux-gnu"

%struct._cmsMemPluginChunkType = type { ptr, ptr, ptr, ptr, ptr, ptr }
%struct._cmsSubAllocator = type { ptr, ptr }
%struct._cmsSubAllocator_chunk_st = type { ptr, i32, i32, ptr }

; Function Attrs: nounwind uwtable
define hidden void @_cmsFree(ptr noundef %0, ptr noundef %1) #0 {
  %3 = alloca ptr, align 8
  %4 = alloca ptr, align 8
  %5 = alloca ptr, align 8
  store ptr %0, ptr %3, align 8
  store ptr %1, ptr %4, align 8
  %6 = load ptr, ptr %4, align 8
  %7 = icmp ne ptr %6, null
  br i1 %7, label %8, label %16

8:                                                ; preds = %2
  %9 = load ptr, ptr %3, align 8
  %10 = call ptr @_cmsContextGetClientChunk(ptr noundef %9, i32 noundef 4)
  store ptr %10, ptr %5, align 8
  %11 = load ptr, ptr %5, align 8
  %12 = getelementptr inbounds %struct._cmsMemPluginChunkType, ptr %11, i32 0, i32 2
  %13 = load ptr, ptr %12, align 8
  %14 = load ptr, ptr %3, align 8
  %15 = load ptr, ptr %4, align 8
  call void %13(ptr noundef %14, ptr noundef %15)
  br label %16

16:                                               ; preds = %8, %2
  ret void
}

; Function Attrs: nounwind uwtable
define hidden ptr @_cmsMalloc(ptr noundef %0, i32 noundef %1) #0 {
  %3 = alloca ptr, align 8
  %4 = alloca i32, align 4
  %5 = alloca ptr, align 8
  store ptr %0, ptr %3, align 8
  store i32 %1, ptr %4, align 4
  %6 = load ptr, ptr %3, align 8
  %7 = call ptr @_cmsContextGetClientChunk(ptr noundef %6, i32 noundef 4)
  store ptr %7, ptr %5, align 8
  %8 = load ptr, ptr %5, align 8
  %9 = getelementptr inbounds %struct._cmsMemPluginChunkType, ptr %8, i32 0, i32 0
  %10 = load ptr, ptr %9, align 8
  %11 = load ptr, ptr %3, align 8
  %12 = load i32, ptr %4, align 4
  %13 = call ptr %10(ptr noundef %11, i32 noundef %12)
  ret ptr %13
}

; Function Attrs: nounwind uwtable
define hidden ptr @_cmsMallocZero(ptr noundef %0, i32 noundef %1) #0 {
  %3 = alloca ptr, align 8
  %4 = alloca i32, align 4
  %5 = alloca ptr, align 8
  store ptr %0, ptr %3, align 8
  store i32 %1, ptr %4, align 4
  %6 = load ptr, ptr %3, align 8
  %7 = call ptr @_cmsContextGetClientChunk(ptr noundef %6, i32 noundef 4)
  store ptr %7, ptr %5, align 8
  %8 = load ptr, ptr %5, align 8
  %9 = getelementptr inbounds %struct._cmsMemPluginChunkType, ptr %8, i32 0, i32 1
  %10 = load ptr, ptr %9, align 8
  %11 = load ptr, ptr %3, align 8
  %12 = load i32, ptr %4, align 4
  %13 = call ptr %10(ptr noundef %11, i32 noundef %12)
  ret ptr %13
}

; Function Attrs: nounwind uwtable
define internal ptr @_cmsCreateSubAllocChunk(ptr noundef %0, i32 noundef %1) #0 {
  %3 = alloca ptr, align 8
  %4 = alloca ptr, align 8
  %5 = alloca i32, align 4
  %6 = alloca ptr, align 8
  store ptr %0, ptr %4, align 8
  store i32 %1, ptr %5, align 4
  %7 = load i32, ptr %5, align 4
  %8 = icmp eq i32 %7, 0
  br i1 %8, label %9, label %10

9:                                                ; preds = %2
  store i32 20480, ptr %5, align 4
  br label %10

10:                                               ; preds = %9, %2
  %11 = load ptr, ptr %4, align 8
  %12 = call ptr @_cmsMallocZero(ptr noundef %11, i32 noundef 24)
  store ptr %12, ptr %6, align 8
  %13 = load ptr, ptr %6, align 8
  %14 = icmp eq ptr %13, null
  br i1 %14, label %15, label %16

15:                                               ; preds = %10
  store ptr null, ptr %3, align 8
  br label %38

16:                                               ; preds = %10
  %17 = load ptr, ptr %4, align 8
  %18 = load i32, ptr %5, align 4
  %19 = call ptr @_cmsMalloc(ptr noundef %17, i32 noundef %18)
  %20 = load ptr, ptr %6, align 8
  %21 = getelementptr inbounds %struct._cmsSubAllocator_chunk_st, ptr %20, i32 0, i32 0
  store ptr %19, ptr %21, align 8
  %22 = load ptr, ptr %6, align 8
  %23 = getelementptr inbounds %struct._cmsSubAllocator_chunk_st, ptr %22, i32 0, i32 0
  %24 = load ptr, ptr %23, align 8
  %25 = icmp eq ptr %24, null
  br i1 %25, label %26, label %29

26:                                               ; preds = %16
  %27 = load ptr, ptr %4, align 8
  %28 = load ptr, ptr %6, align 8
  call void @_cmsFree(ptr noundef %27, ptr noundef %28)
  store ptr null, ptr %3, align 8
  br label %38

29:                                               ; preds = %16
  %30 = load i32, ptr %5, align 4
  %31 = load ptr, ptr %6, align 8
  %32 = getelementptr inbounds %struct._cmsSubAllocator_chunk_st, ptr %31, i32 0, i32 1
  store i32 %30, ptr %32, align 8
  %33 = load ptr, ptr %6, align 8
  %34 = getelementptr inbounds %struct._cmsSubAllocator_chunk_st, ptr %33, i32 0, i32 2
  store i32 0, ptr %34, align 4
  %35 = load ptr, ptr %6, align 8
  %36 = getelementptr inbounds %struct._cmsSubAllocator_chunk_st, ptr %35, i32 0, i32 3
  store ptr null, ptr %36, align 8
  %37 = load ptr, ptr %6, align 8
  store ptr %37, ptr %3, align 8
  br label %38

38:                                               ; preds = %29, %26, %15
  %39 = load ptr, ptr %3, align 8
  ret ptr %39
}

; Function Attrs: nounwind uwtable
define hidden ptr @_cmsSubAlloc(ptr noundef %0, i32 noundef %1) #0 {
  %3 = alloca ptr, align 8
  %4 = alloca ptr, align 8
  %5 = alloca i32, align 4
  %6 = alloca i32, align 4
  %7 = alloca ptr, align 8
  %8 = alloca ptr, align 8
  %9 = alloca i32, align 4
  store ptr %0, ptr %4, align 8
  store i32 %1, ptr %5, align 4
  %10 = load ptr, ptr %4, align 8
  %11 = getelementptr inbounds %struct._cmsSubAllocator, ptr %10, i32 0, i32 1
  %12 = load ptr, ptr %11, align 8
  %13 = getelementptr inbounds %struct._cmsSubAllocator_chunk_st, ptr %12, i32 0, i32 1
  %14 = load i32, ptr %13, align 8
  %15 = load ptr, ptr %4, align 8
  %16 = getelementptr inbounds %struct._cmsSubAllocator, ptr %15, i32 0, i32 1
  %17 = load ptr, ptr %16, align 8
  %18 = getelementptr inbounds %struct._cmsSubAllocator_chunk_st, ptr %17, i32 0, i32 2
  %19 = load i32, ptr %18, align 4
  %20 = sub i32 %14, %19
  store i32 %20, ptr %6, align 4
  %21 = load i32, ptr %5, align 4
  %22 = zext i32 %21 to i64
  %23 = add i64 %22, 7
  %24 = and i64 %23, -8
  %25 = trunc i64 %24 to i32
  store i32 %25, ptr %5, align 4
  %26 = load i32, ptr %5, align 4
  %27 = load i32, ptr %6, align 4
  %28 = icmp ugt i32 %26, %27
  br i1 %28, label %29, label %59

29:                                               ; preds = %2
  %30 = load ptr, ptr %4, align 8
  %31 = getelementptr inbounds %struct._cmsSubAllocator, ptr %30, i32 0, i32 1
  %32 = load ptr, ptr %31, align 8
  %33 = getelementptr inbounds %struct._cmsSubAllocator_chunk_st, ptr %32, i32 0, i32 1
  %34 = load i32, ptr %33, align 8
  %35 = mul i32 %34, 2
  store i32 %35, ptr %9, align 4
  %36 = load i32, ptr %9, align 4
  %37 = load i32, ptr %5, align 4
  %38 = icmp ult i32 %36, %37
  br i1 %38, label %39, label %41

39:                                               ; preds = %29
  %40 = load i32, ptr %5, align 4
  store i32 %40, ptr %9, align 4
  br label %41

41:                                               ; preds = %39, %29
  %42 = load ptr, ptr %4, align 8
  %43 = getelementptr inbounds %struct._cmsSubAllocator, ptr %42, i32 0, i32 0
  %44 = load ptr, ptr %43, align 8
  %45 = load i32, ptr %9, align 4
  %46 = call ptr @_cmsCreateSubAllocChunk(ptr noundef %44, i32 noundef %45)
  store ptr %46, ptr %8, align 8
  %47 = load ptr, ptr %8, align 8
  %48 = icmp eq ptr %47, null
  br i1 %48, label %49, label %50

49:                                               ; preds = %41
  store ptr null, ptr %3, align 8
  br label %80

50:                                               ; preds = %41
  %51 = load ptr, ptr %4, align 8
  %52 = getelementptr inbounds %struct._cmsSubAllocator, ptr %51, i32 0, i32 1
  %53 = load ptr, ptr %52, align 8
  %54 = load ptr, ptr %8, align 8
  %55 = getelementptr inbounds %struct._cmsSubAllocator_chunk_st, ptr %54, i32 0, i32 3
  store ptr %53, ptr %55, align 8
  %56 = load ptr, ptr %8, align 8
  %57 = load ptr, ptr %4, align 8
  %58 = getelementptr inbounds %struct._cmsSubAllocator, ptr %57, i32 0, i32 1
  store ptr %56, ptr %58, align 8
  br label %59

59:                                               ; preds = %50, %2
  %60 = load ptr, ptr %4, align 8
  %61 = getelementptr inbounds %struct._cmsSubAllocator, ptr %60, i32 0, i32 1
  %62 = load ptr, ptr %61, align 8
  %63 = getelementptr inbounds %struct._cmsSubAllocator_chunk_st, ptr %62, i32 0, i32 0
  %64 = load ptr, ptr %63, align 8
  %65 = load ptr, ptr %4, align 8
  %66 = getelementptr inbounds %struct._cmsSubAllocator, ptr %65, i32 0, i32 1
  %67 = load ptr, ptr %66, align 8
  %68 = getelementptr inbounds %struct._cmsSubAllocator_chunk_st, ptr %67, i32 0, i32 2
  %69 = load i32, ptr %68, align 4
  %70 = zext i32 %69 to i64
  %71 = getelementptr inbounds i8, ptr %64, i64 %70
  store ptr %71, ptr %7, align 8
  %72 = load i32, ptr %5, align 4
  %73 = load ptr, ptr %4, align 8
  %74 = getelementptr inbounds %struct._cmsSubAllocator, ptr %73, i32 0, i32 1
  %75 = load ptr, ptr %74, align 8
  %76 = getelementptr inbounds %struct._cmsSubAllocator_chunk_st, ptr %75, i32 0, i32 2
  %77 = load i32, ptr %76, align 4
  %78 = add i32 %77, %72
  store i32 %78, ptr %76, align 4
  %79 = load ptr, ptr %7, align 8
  store ptr %79, ptr %3, align 8
  br label %80

80:                                               ; preds = %59, %49
  %81 = load ptr, ptr %3, align 8
  ret ptr %81
}