; Function Attrs: nounwind uwtable
define hidden ptr @_cmsSubAlloc(ptr nocapture noundef %0, i32 noundef %1) local_unnamed_addr #6 {
  %3 = getelementptr inbounds i8, ptr %0, i64 8
  %4 = load ptr, ptr %3, align 8
  %5 = getelementptr inbounds i8, ptr %4, i64 8
  %6 = load i32, ptr %5, align 8
  %7 = getelementptr inbounds i8, ptr %4, i64 12
  %8 = load i32, ptr %7, align 4
  %9 = sub i32 %6, %8
  %10 = add i32 %1, 7
  %11 = and i32 %10, -8
  %12 = icmp ugt i32 %11, %9
  br i1 %12, label %13, label %34

13:                                               ; preds = %2
  %14 = shl i32 %6, 1
  %spec.select = tail call i32 @llvm.umax.i32(i32 %14, i32 %11)
  %15 = load ptr, ptr %0, align 8
  %16 = tail call ptr @_cmsContextGetClientChunk(ptr noundef %15, i32 noundef 4) #20
  %17 = getelementptr inbounds i8, ptr %16, i64 8
  %18 = load ptr, ptr %17, align 8
  %19 = tail call ptr %18(ptr noundef %15, i32 noundef 24) #20
  %20 = icmp eq ptr %19, null
  br i1 %20, label %_cmsCreateSubAllocChunk.exit.thread, label %21

21:                                               ; preds = %13
  %22 = tail call ptr @_cmsContextGetClientChunk(ptr noundef %15, i32 noundef 4) #20
  %23 = load ptr, ptr %22, align 8
  %24 = tail call ptr %23(ptr noundef %15, i32 noundef %spec.select) #20
  store ptr %24, ptr %19, align 8
  %25 = icmp eq ptr %24, null
  br i1 %25, label %_cmsFree.exit.i, label %29

_cmsFree.exit.i:                                  ; preds = %21
  %26 = tail call ptr @_cmsContextGetClientChunk(ptr noundef %15, i32 noundef 4) #20
  %27 = getelementptr inbounds i8, ptr %26, i64 16
  %28 = load ptr, ptr %27, align 8
  tail call void %28(ptr noundef %15, ptr noundef nonnull %19) #20
  br label %_cmsCreateSubAllocChunk.exit.thread

29:                                               ; preds = %21
  %30 = getelementptr inbounds i8, ptr %19, i64 8
  store i32 %spec.select, ptr %30, align 8
  %31 = getelementptr inbounds i8, ptr %19, i64 12
  store i32 0, ptr %31, align 4
  %32 = getelementptr inbounds i8, ptr %19, i64 16
  store ptr null, ptr %32, align 8
  %33 = load ptr, ptr %3, align 8
  store ptr %33, ptr %32, align 8
  store ptr %19, ptr %3, align 8
  %.pre = load i32, ptr %31, align 4
  br label %34

34:                                               ; preds = %29, %2
  %35 = phi i32 [ %.pre, %29 ], [ %8, %2 ]
  %36 = phi ptr [ %19, %29 ], [ %4, %2 ]
  %37 = load ptr, ptr %36, align 8
  %38 = getelementptr inbounds i8, ptr %36, i64 12
  %39 = zext i32 %35 to i64
  %40 = getelementptr inbounds i8, ptr %37, i64 %39
  %41 = add i32 %35, %11
  store i32 %41, ptr %38, align 4
  br label %_cmsCreateSubAllocChunk.exit.thread

_cmsCreateSubAllocChunk.exit.thread:              ; preds = %13, %_cmsFree.exit.i, %34
  %.021 = phi ptr [ %40, %34 ], [ null, %_cmsFree.exit.i ], [ null, %13 ]
  ret ptr %.021
}